; Function Attrs: mustprogress uwtable
define noundef i32 @_ZNK6icu_7715ChineseCalendar20handleGetMonthLengthEiiR10UErrorCode(ptr noundef nonnull align 8 dereferenceable(193) %0, i32 noundef %1, i32 noundef %2, ptr noundef nonnull align 4 dereferenceable(4) %3) unnamed_addr #0 align 2 {
  %5 = alloca %"struct.icu_77::ChineseCalendar::Setting", align 8
  %6 = getelementptr inbounds nuw i8, ptr %0, i64 96
  %7 = load i32, ptr %6, align 8, !tbaa !20
  call void @llvm.lifetime.start.p0(i64 32, ptr nonnull %5) #8
  %8 = load ptr, ptr %0, align 8, !tbaa !3
  %9 = getelementptr inbounds nuw i8, ptr %8, i64 456
  %10 = load ptr, ptr %9, align 8
  call void %10(ptr dead_on_unwind nonnull writable sret(%"struct.icu_77::ChineseCalendar::Setting") align 8 %5, ptr noundef nonnull align 8 dereferenceable(193) %0, ptr noundef nonnull align 4 dereferenceable(4) %3)
  %11 = load i32, ptr %3, align 4, !tbaa !21
  %12 = icmp slt i32 %11, 1
  br i1 %12, label %13, label %_ZNK6icu_7715ChineseCalendar28handleGetMonthLengthWithLeapEiibR10UErrorCode.exit

13:                                               ; preds = %4
  %14 = icmp eq i32 %7, 1
  %15 = call noundef i64 @_ZNK6icu_7715ChineseCalendar31handleComputeMonthStartWithLeapEiibR10UErrorCode(ptr noundef nonnull align 8 dereferenceable(193) %0, i32 noundef %1, i32 noundef %2, i1 noundef zeroext %14, ptr noundef nonnull align 4 dereferenceable(4) %3)
  %16 = load i32, ptr %3, align 4, !tbaa !21
  %17 = icmp slt i32 %16, 1
  br i1 %17, label %18, label %_ZNK6icu_7715ChineseCalendar28handleGetMonthLengthWithLeapEiibR10UErrorCode.exit

18:                                               ; preds = %13
  %19 = trunc nsw i64 %15 to i32
  %20 = getelementptr inbounds nuw i8, ptr %5, i64 8
  %21 = load ptr, ptr %20, align 8, !tbaa !28
  %22 = add nsw i32 %19, -2440562
  %23 = sitofp i32 %22 to double
  %24 = call fastcc noundef i32 @_ZN6icu_7712_GLOBAL__N_111newMoonNearEPKNS_8TimeZoneEdaR10UErrorCode(ptr noundef %21, double noundef %23, i8 noundef signext 1, ptr noundef nonnull align 4 dereferenceable(4) %3)
  %reass.sub = sub i32 %24, %19
  %25 = add i32 %reass.sub, 2440587
  br label %_ZNK6icu_7715ChineseCalendar28handleGetMonthLengthWithLeapEiibR10UErrorCode.exit

_ZNK6icu_7715ChineseCalendar28handleGetMonthLengthWithLeapEiibR10UErrorCode.exit: ; preds = %4, %13, %18
  %.0.i = phi i32 [ 0, %4 ], [ %25, %18 ], [ 0, %13 ]
  call void @llvm.lifetime.end.p0(i64 32, ptr nonnull %5) #8
  ret i32 %.0.i
}